; Function Attrs: mustprogress uwtable
define noundef zeroext i1 @_ZN7rocksdb10LDBCommand12StringToBoolENSt7__cxx1112basic_stringIcSt11char_traitsIcESaIcEEE(ptr noundef nonnull readnone align 8 captures(none) dereferenceable(2208) %0, ptr noundef %1) local_unnamed_addr #5 align 2 {
  %3 = load ptr, ptr %1, align 8, !tbaa !16
  %4 = getelementptr inbounds nuw i8, ptr %1, i64 8
  %5 = load i64, ptr %4, align 8, !tbaa !19
  %6 = getelementptr inbounds nuw i8, ptr %3, i64 %5
  %.not6.i = icmp samesign eq i64 %5, 0
  br i1 %.not6.i, label %"_ZSt9transformIN9__gnu_cxx17__normal_iteratorIPcNSt7__cxx1112basic_stringIcSt11char_traitsIcESaIcEEEEES9_ZN7rocksdb10LDBCommand12StringToBoolES8_E3$_0ET0_T_SE_SD_T1_.exit", label %.lr.ph.i

.lr.ph.i:                                         ; preds = %2, %.lr.ph.i
  %.sroa.0.08.i = phi ptr [ %11, %.lr.ph.i ], [ %3, %2 ]
  %7 = load i8, ptr %.sroa.0.08.i, align 1, !tbaa !18
  %8 = sext i8 %7 to i32
  %9 = tail call i32 @tolower(i32 noundef %8) #40
  %10 = trunc i32 %9 to i8
  store i8 %10, ptr %.sroa.0.08.i, align 1, !tbaa !18
  %11 = getelementptr i8, ptr %.sroa.0.08.i, i64 1
  %.not.i = icmp eq ptr %11, %6
  br i1 %.not.i, label %"_ZSt9transformIN9__gnu_cxx17__normal_iteratorIPcNSt7__cxx1112basic_stringIcSt11char_traitsIcESaIcEEEEES9_ZN7rocksdb10LDBCommand12StringToBoolES8_E3$_0ET0_T_SE_SD_T1_.exit", label %.lr.ph.i, !llvm.loop !579

"_ZSt9transformIN9__gnu_cxx17__normal_iteratorIPcNSt7__cxx1112basic_stringIcSt11char_traitsIcESaIcEEEEES9_ZN7rocksdb10LDBCommand12StringToBoolES8_E3$_0ET0_T_SE_SD_T1_.exit": ; preds = %.lr.ph.i, %2
  %12 = tail call noundef i32 @_ZNKSt7__cxx1112basic_stringIcSt11char_traitsIcESaIcEE7compareEPKc(ptr noundef nonnull align 8 dereferenceable(32) %1, ptr noundef nonnull @.str.179) #35
  %13 = icmp eq i32 %12, 0
  br i1 %13, label %19, label %14

14:                                               ; preds = %"_ZSt9transformIN9__gnu_cxx17__normal_iteratorIPcNSt7__cxx1112basic_stringIcSt11char_traitsIcESaIcEEEEES9_ZN7rocksdb10LDBCommand12StringToBoolES8_E3$_0ET0_T_SE_SD_T1_.exit"
  %15 = tail call noundef i32 @_ZNKSt7__cxx1112basic_stringIcSt11char_traitsIcESaIcEE7compareEPKc(ptr noundef nonnull align 8 dereferenceable(32) %1, ptr noundef nonnull @.str.180) #35
  %16 = icmp eq i32 %15, 0
  br i1 %16, label %19, label %17

17:                                               ; preds = %14
  %18 = tail call ptr @__cxa_allocate_exception(i64 8) #35
  store ptr @.str.181, ptr %18, align 16, !tbaa !33
  tail call void @__cxa_throw(ptr nonnull %18, ptr nonnull @_ZTIPKc, ptr null) #34
  unreachable

19:                                               ; preds = %14, %"_ZSt9transformIN9__gnu_cxx17__normal_iteratorIPcNSt7__cxx1112basic_stringIcSt11char_traitsIcESaIcEEEEES9_ZN7rocksdb10LDBCommand12StringToBoolES8_E3$_0ET0_T_SE_SD_T1_.exit"
  ret i1 %13
}